target datalayout = "e-m:e-p270:32:32-p271:32:32-p272:64:64-i64:64-i128:128-f80:128-n8:16:32:64-S128"
target triple = "x86_64-pc-linux-gnu"

%struct._php_ps_globals = type { ptr, ptr, ptr, ptr, ptr, i64, ptr, ptr, ptr, i8, i8, ptr, ptr, ptr, i32, ptr, i32, i32, %struct._php_random_status_state_pcgoneseq128xslrr64, %struct._php_random_algo_with_state, i64, i64, i64, i64, %struct.anon, ptr, i8, i8, i8, i8, i8, i8, i8, i8, ptr, %struct._zval_struct, i64, i64, ptr, ptr, ptr, i64, double, i8, i8, i8, i8, i8, i8, ptr }
%struct._php_random_status_state_pcgoneseq128xslrr64 = type { i128 }
%struct._php_random_algo_with_state = type { ptr, ptr }
%struct.anon = type { %struct._zval_struct, %struct._zval_struct, %struct._zval_struct, %struct._zval_struct, %struct._zval_struct, %struct._zval_struct, %struct._zval_struct, %struct._zval_struct, %struct._zval_struct }
%struct._zval_struct = type { %union._zend_value, %union.anon, %union.anon.3 }
%union._zend_value = type { i64 }
%union.anon = type { i32 }
%union.anon.3 = type { i32 }
%struct._zend_array = type { %struct._zend_refcounted_h, %union.anon.5, i32, %union.anon.7, i32, i32, i32, i32, i64, ptr }
%struct._zend_refcounted_h = type { i32, %union.anon.4 }
%union.anon.4 = type { i32 }
%union.anon.5 = type { i32 }
%union.anon.7 = type { ptr }
%struct._zend_reference = type { %struct._zend_refcounted_h, %struct._zval_struct, %union.zend_property_info_source_list }
%union.zend_property_info_source_list = type { ptr }
%struct._zend_string = type { %struct._zend_refcounted_h, i64, i64, [1 x i8] }
%struct.smart_str = type { ptr, i64 }
%struct.anon.1 = type { i8, i8, %union.anon.2 }
%union.anon.2 = type { i16 }
%struct.timeval = type { i64, i64 }
%struct._php_session_rfc1867_progress = type { i64, %struct._zval_struct, %struct.smart_str, i64, i64, double, i8, i8, i64, %struct._zval_struct, %struct._zval_struct, ptr, ptr, %struct._zval_struct }

@ps_globals = global %struct._php_ps_globals zeroinitializer, align 16
@.str.255 = private unnamed_addr constant [14 x i8] c"cancel_upload\00", align 1

; Function Attrs: nounwind uwtable
define internal zeroext i1 @php_check_cancel_upload(ptr noundef %0) #0 {
  %2 = alloca i1, align 1
  %3 = alloca ptr, align 8
  %4 = alloca i64, align 8
  %5 = alloca ptr, align 8
  %6 = alloca ptr, align 8
  %7 = alloca ptr, align 8
  %8 = alloca ptr, align 8
  %9 = alloca ptr, align 8
  %10 = alloca i64, align 8
  %11 = alloca ptr, align 8
  %12 = alloca ptr, align 8
  %13 = alloca i1, align 1
  %14 = alloca ptr, align 8
  %15 = alloca ptr, align 8
  %16 = alloca ptr, align 8
  store ptr %0, ptr %14, align 8
  %17 = load ptr, ptr getelementptr inbounds (%struct._php_ps_globals, ptr @ps_globals, i32 0, i32 35), align 8
  %18 = getelementptr inbounds %struct._zend_reference, ptr %17, i32 0, i32 1
  %19 = getelementptr inbounds %struct._zval_struct, ptr %18, i32 0, i32 0
  %20 = load ptr, ptr %19, align 8
  %21 = load ptr, ptr %14, align 8
  %22 = getelementptr inbounds %struct._php_session_rfc1867_progress, ptr %21, i32 0, i32 2
  %23 = getelementptr inbounds %struct.smart_str, ptr %22, i32 0, i32 0
  %24 = load ptr, ptr %23, align 8
  store ptr %20, ptr %8, align 8
  store ptr %24, ptr %9, align 8
  %25 = load ptr, ptr %9, align 8
  %26 = getelementptr inbounds %struct._zend_string, ptr %25, i32 0, i32 3
  %27 = load ptr, ptr %9, align 8
  %28 = getelementptr inbounds %struct._zend_string, ptr %27, i32 0, i32 2
  %29 = load i64, ptr %28, align 8
  store ptr %26, ptr %3, align 8
  store i64 %29, ptr %4, align 8
  store ptr %10, ptr %5, align 8
  %30 = load ptr, ptr %3, align 8
  store ptr %30, ptr %6, align 8
  %31 = load ptr, ptr %6, align 8
  %32 = load i8, ptr %31, align 1
  %33 = sext i8 %32 to i32
  %34 = icmp sgt i32 %33, 57
  br i1 %34, label %35, label %36

35:                                               ; preds = %1
  store i1 false, ptr %2, align 1
  br label %66

36:                                               ; preds = %1
  %37 = load ptr, ptr %6, align 8
  %38 = load i8, ptr %37, align 1
  %39 = sext i8 %38 to i32
  %40 = icmp slt i32 %39, 48
  br i1 %40, label %41, label %61

41:                                               ; preds = %36
  %42 = load ptr, ptr %6, align 8
  %43 = load i8, ptr %42, align 1
  %44 = sext i8 %43 to i32
  %45 = icmp ne i32 %44, 45
  br i1 %45, label %46, label %47

46:                                               ; preds = %41
  store i1 false, ptr %2, align 1
  br label %66

47:                                               ; preds = %41
  %48 = load ptr, ptr %6, align 8
  %49 = getelementptr inbounds i8, ptr %48, i32 1
  store ptr %49, ptr %6, align 8
  %50 = load ptr, ptr %6, align 8
  %51 = load i8, ptr %50, align 1
  %52 = sext i8 %51 to i32
  %53 = icmp sgt i32 %52, 57
  br i1 %53, label %59, label %54

54:                                               ; preds = %47
  %55 = load ptr, ptr %6, align 8
  %56 = load i8, ptr %55, align 1
  %57 = sext i8 %56 to i32
  %58 = icmp slt i32 %57, 48
  br i1 %58, label %59, label %60

59:                                               ; preds = %54, %47
  store i1 false, ptr %2, align 1
  br label %66

60:                                               ; preds = %54
  br label %61

61:                                               ; preds = %60, %36
  %62 = load ptr, ptr %3, align 8
  %63 = load i64, ptr %4, align 8
  %64 = load ptr, ptr %5, align 8
  %65 = call zeroext i1 @_zend_handle_numeric_str_ex(ptr noundef %62, i64 noundef %63, ptr noundef %64) #14
  store i1 %65, ptr %2, align 1
  br label %66

66:                                               ; preds = %61, %59, %46, %35
  %67 = load i1, ptr %2, align 1
  br i1 %67, label %68, label %72

68:                                               ; preds = %66
  %69 = load ptr, ptr %8, align 8
  %70 = load i64, ptr %10, align 8
  %71 = call ptr @zend_hash_index_find(ptr noundef %69, i64 noundef %70) #14
  store ptr %71, ptr %7, align 8
  br label %76

72:                                               ; preds = %66
  %73 = load ptr, ptr %8, align 8
  %74 = load ptr, ptr %9, align 8
  %75 = call ptr @zend_hash_find(ptr noundef %73, ptr noundef %74) #14
  store ptr %75, ptr %7, align 8
  br label %76

76:                                               ; preds = %72, %68
  %77 = load ptr, ptr %7, align 8
  store ptr %77, ptr %15, align 8
  %78 = icmp eq ptr %77, null
  br i1 %78, label %79, label %80

79:                                               ; preds = %76
  store i1 false, ptr %13, align 1
  br label %102

80:                                               ; preds = %76
  %81 = load ptr, ptr %15, align 8
  store ptr %81, ptr %11, align 8
  %82 = load ptr, ptr %11, align 8
  %83 = getelementptr inbounds %struct._zval_struct, ptr %82, i32 0, i32 1
  %84 = load i8, ptr %83, align 8
  %85 = zext i8 %84 to i32
  %86 = icmp ne i32 %85, 7
  br i1 %86, label %87, label %88

87:                                               ; preds = %80
  store i1 false, ptr %13, align 1
  br label %102

88:                                               ; preds = %80
  %89 = load ptr, ptr %15, align 8
  %90 = getelementptr inbounds %struct._zval_struct, ptr %89, i32 0, i32 0
  %91 = load ptr, ptr %90, align 8
  %92 = call ptr @zend_hash_str_find(ptr noundef %91, ptr noundef @.str.255, i64 noundef 13)
  store ptr %92, ptr %16, align 8
  %93 = icmp eq ptr %92, null
  br i1 %93, label %94, label %95

94:                                               ; preds = %88
  store i1 false, ptr %13, align 1
  br label %102

95:                                               ; preds = %88
  %96 = load ptr, ptr %16, align 8
  store ptr %96, ptr %12, align 8
  %97 = load ptr, ptr %12, align 8
  %98 = getelementptr inbounds %struct._zval_struct, ptr %97, i32 0, i32 1
  %99 = load i8, ptr %98, align 8
  %100 = zext i8 %99 to i32
  %101 = icmp eq i32 %100, 3
  store i1 %101, ptr %13, align 1
  br label %102

102:                                              ; preds = %95, %94, %87, %79
  %103 = load i1, ptr %13, align 1
  ret i1 %103
}

; Function Attrs: nounwind uwtable
define internal void @php_session_rfc1867_update(ptr noundef %0, i32 noundef %1) #0 {
  %3 = alloca ptr, align 8
  %4 = alloca ptr, align 8
  %5 = alloca ptr, align 8
  %6 = alloca ptr, align 8
  %7 = alloca ptr, align 8
  %8 = alloca ptr, align 8
  %9 = alloca ptr, align 8
  %10 = alloca i32, align 4
  %11 = alloca %struct.timeval, align 8
  %12 = alloca double, align 8
  %13 = alloca ptr, align 8
  %14 = alloca ptr, align 8
  %15 = alloca ptr, align 8
  %16 = alloca ptr, align 8
  %17 = alloca ptr, align 8
  store ptr %0, ptr %9, align 8
  store i32 %1, ptr %10, align 4
  %18 = load i32, ptr %10, align 4
  %19 = icmp ne i32 %18, 0
  br i1 %19, label %68, label %20

20:                                               ; preds = %2
  %21 = load ptr, ptr %9, align 8
  %22 = getelementptr inbounds %struct._php_session_rfc1867_progress, ptr %21, i32 0, i32 11
  %23 = load ptr, ptr %22, align 8
  %24 = getelementptr inbounds %struct._zval_struct, ptr %23, i32 0, i32 0
  %25 = load i64, ptr %24, align 8
  %26 = load ptr, ptr %9, align 8
  %27 = getelementptr inbounds %struct._php_session_rfc1867_progress, ptr %26, i32 0, i32 4
  %28 = load i64, ptr %27, align 8
  %29 = icmp slt i64 %25, %28
  br i1 %29, label %30, label %31

30:                                               ; preds = %20
  br label %173

31:                                               ; preds = %20
  %32 = load double, ptr getelementptr inbounds (%struct._php_ps_globals, ptr @ps_globals, i32 0, i32 42), align 8
  %33 = fcmp ogt double %32, 0.000000e+00
  br i1 %33, label %34, label %56

34:                                               ; preds = %31
  call void @llvm.memset.p0.i64(ptr align 8 %11, i8 0, i64 16, i1 false)
  %35 = call i32 @gettimeofday(ptr noundef %11, ptr noundef null) #14
  %36 = getelementptr inbounds %struct.timeval, ptr %11, i32 0, i32 0
  %37 = load i64, ptr %36, align 8
  %38 = sitofp i64 %37 to double
  %39 = getelementptr inbounds %struct.timeval, ptr %11, i32 0, i32 1
  %40 = load i64, ptr %39, align 8
  %41 = sitofp i64 %40 to double
  %42 = fdiv double %41, 1.000000e+06
  %43 = fadd double %38, %42
  store double %43, ptr %12, align 8
  %44 = load double, ptr %12, align 8
  %45 = load ptr, ptr %9, align 8
  %46 = getelementptr inbounds %struct._php_session_rfc1867_progress, ptr %45, i32 0, i32 5
  %47 = load double, ptr %46, align 8
  %48 = fcmp olt double %44, %47
  br i1 %48, label %49, label %50

49:                                               ; preds = %34
  br label %173

50:                                               ; preds = %34
  %51 = load double, ptr %12, align 8
  %52 = load double, ptr getelementptr inbounds (%struct._php_ps_globals, ptr @ps_globals, i32 0, i32 42), align 8
  %53 = fadd double %51, %52
  %54 = load ptr, ptr %9, align 8
  %55 = getelementptr inbounds %struct._php_session_rfc1867_progress, ptr %54, i32 0, i32 5
  store double %53, ptr %55, align 8
  br label %56

56:                                               ; preds = %50, %31
  %57 = load ptr, ptr %9, align 8
  %58 = getelementptr inbounds %struct._php_session_rfc1867_progress, ptr %57, i32 0, i32 11
  %59 = load ptr, ptr %58, align 8
  %60 = getelementptr inbounds %struct._zval_struct, ptr %59, i32 0, i32 0
  %61 = load i64, ptr %60, align 8
  %62 = load ptr, ptr %9, align 8
  %63 = getelementptr inbounds %struct._php_session_rfc1867_progress, ptr %62, i32 0, i32 3
  %64 = load i64, ptr %63, align 8
  %65 = add nsw i64 %61, %64
  %66 = load ptr, ptr %9, align 8
  %67 = getelementptr inbounds %struct._php_session_rfc1867_progress, ptr %66, i32 0, i32 4
  store i64 %65, ptr %67, align 8
  br label %68

68:                                               ; preds = %56, %2
  %69 = call i32 @php_session_initialize()
  store i32 2, ptr getelementptr inbounds (%struct._php_ps_globals, ptr @ps_globals, i32 0, i32 14), align 8
  store ptr getelementptr inbounds (%struct._php_ps_globals, ptr @ps_globals, i32 0, i32 35), ptr %7, align 8
  %70 = load ptr, ptr %7, align 8
  %71 = getelementptr inbounds %struct._zval_struct, ptr %70, i32 0, i32 1
  %72 = load i8, ptr %71, align 8
  %73 = zext i8 %72 to i32
  %74 = icmp eq i32 %73, 10
  br i1 %74, label %75, label %171

75:                                               ; preds = %68
  %76 = load ptr, ptr getelementptr inbounds (%struct._php_ps_globals, ptr @ps_globals, i32 0, i32 35), align 8
  %77 = getelementptr inbounds %struct._zend_reference, ptr %76, i32 0, i32 1
  store ptr %77, ptr %8, align 8
  %78 = load ptr, ptr %8, align 8
  %79 = getelementptr inbounds %struct._zval_struct, ptr %78, i32 0, i32 1
  %80 = load i8, ptr %79, align 8
  %81 = zext i8 %80 to i32
  %82 = icmp eq i32 %81, 7
  br i1 %82, label %83, label %171

83:                                               ; preds = %75
  %84 = load ptr, ptr getelementptr inbounds (%struct._php_ps_globals, ptr @ps_globals, i32 0, i32 35), align 8
  %85 = getelementptr inbounds %struct._zend_reference, ptr %84, i32 0, i32 1
  store ptr %85, ptr %13, align 8
  br label %86

86:                                               ; preds = %83
  %87 = load ptr, ptr %13, align 8
  store ptr %87, ptr %14, align 8
  %88 = load ptr, ptr %14, align 8
  %89 = getelementptr inbounds %struct._zval_struct, ptr %88, i32 0, i32 0
  %90 = load ptr, ptr %89, align 8
  store ptr %90, ptr %15, align 8
  %91 = load ptr, ptr %15, align 8
  %92 = getelementptr inbounds %struct._zend_array, ptr %91, i32 0, i32 0
  store ptr %92, ptr %6, align 8
  %93 = load ptr, ptr %6, align 8
  %94 = load i32, ptr %93, align 4
  %95 = icmp ugt i32 %94, 1
  %96 = xor i1 %95, true
  %97 = xor i1 %96, true
  %98 = zext i1 %97 to i32
  %99 = sext i32 %98 to i64
  %100 = icmp ne i64 %99, 0
  br i1 %100, label %101, label %124

101:                                              ; preds = %86
  br label %102

102:                                              ; preds = %101
  %103 = load ptr, ptr %15, align 8
  %104 = call ptr @zend_array_dup(ptr noundef %103)
  store ptr %104, ptr %16, align 8
  %105 = load ptr, ptr %14, align 8
  store ptr %105, ptr %17, align 8
  %106 = load ptr, ptr %16, align 8
  %107 = load ptr, ptr %17, align 8
  %108 = getelementptr inbounds %struct._zval_struct, ptr %107, i32 0, i32 0
  store ptr %106, ptr %108, align 8
  %109 = load ptr, ptr %17, align 8
  %110 = getelementptr inbounds %struct._zval_struct, ptr %109, i32 0, i32 1
  store i32 775, ptr %110, align 8
  br label %111

111:                                              ; preds = %102
  %112 = load ptr, ptr %15, align 8
  %113 = getelementptr inbounds %struct._zend_array, ptr %112, i32 0, i32 0
  store ptr %113, ptr %5, align 8
  %114 = load ptr, ptr %5, align 8
  %115 = getelementptr inbounds %struct._zend_refcounted_h, ptr %114, i32 0, i32 1
  %116 = load i32, ptr %115, align 4
  %117 = and i32 %116, 64
  %118 = icmp ne i32 %117, 0
  br i1 %118, label %123, label %119

119:                                              ; preds = %111
  %120 = load ptr, ptr %5, align 8
  %121 = load i32, ptr %120, align 4
  %122 = add i32 %121, -1
  store i32 %122, ptr %120, align 4
  br label %123

123:                                              ; preds = %119, %111
  br label %124

124:                                              ; preds = %123, %86
  br label %125

125:                                              ; preds = %124
  %126 = load ptr, ptr %9, align 8
  %127 = call zeroext i1 @php_check_cancel_upload(ptr noundef %126)
  %128 = zext i1 %127 to i32
  %129 = load ptr, ptr %9, align 8
  %130 = getelementptr inbounds %struct._php_session_rfc1867_progress, ptr %129, i32 0, i32 6
  %131 = load i8, ptr %130, align 8
  %132 = trunc i8 %131 to i1
  %133 = zext i1 %132 to i32
  %134 = or i32 %133, %128
  %135 = icmp ne i32 %134, 0
  %136 = zext i1 %135 to i8
  store i8 %136, ptr %130, align 8
  br label %137

137:                                              ; preds = %125
  %138 = load ptr, ptr %9, align 8
  %139 = getelementptr inbounds %struct._php_session_rfc1867_progress, ptr %138, i32 0, i32 9
  %140 = getelementptr inbounds %struct._zval_struct, ptr %139, i32 0, i32 1
  %141 = getelementptr inbounds %struct.anon.1, ptr %140, i32 0, i32 1
  %142 = load i8, ptr %141, align 1
  %143 = zext i8 %142 to i32
  %144 = icmp ne i32 %143, 0
  br i1 %144, label %145, label %159

145:                                              ; preds = %137
  %146 = load ptr, ptr %9, align 8
  %147 = getelementptr inbounds %struct._php_session_rfc1867_progress, ptr %146, i32 0, i32 9
  store ptr %147, ptr %4, align 8
  %148 = load ptr, ptr %4, align 8
  %149 = getelementptr inbounds %struct._zval_struct, ptr %148, i32 0, i32 1
  %150 = getelementptr inbounds %struct.anon.1, ptr %149, i32 0, i32 1
  %151 = load i8, ptr %150, align 1
  %152 = zext i8 %151 to i32
  %153 = icmp ne i32 %152, 0
  call void @llvm.assume(i1 %153)
  %154 = load ptr, ptr %4, align 8
  %155 = load ptr, ptr %154, align 8
  store ptr %155, ptr %3, align 8
  %156 = load ptr, ptr %3, align 8
  %157 = load i32, ptr %156, align 4
  %158 = add i32 %157, 1
  store i32 %158, ptr %156, align 4
  br label %159

159:                                              ; preds = %145, %137
  br label %160

160:                                              ; preds = %159
  %161 = load ptr, ptr %13, align 8
  %162 = getelementptr inbounds %struct._zval_struct, ptr %161, i32 0, i32 0
  %163 = load ptr, ptr %162, align 8
  %164 = load ptr, ptr %9, align 8
  %165 = getelementptr inbounds %struct._php_session_rfc1867_progress, ptr %164, i32 0, i32 2
  %166 = getelementptr inbounds %struct.smart_str, ptr %165, i32 0, i32 0
  %167 = load ptr, ptr %166, align 8
  %168 = load ptr, ptr %9, align 8
  %169 = getelementptr inbounds %struct._php_session_rfc1867_progress, ptr %168, i32 0, i32 9
  %170 = call ptr @zend_hash_update(ptr noundef %163, ptr noundef %167, ptr noundef %169)
  br label %171

171:                                              ; preds = %160, %75, %68
  %172 = call i32 @php_session_flush(i32 noundef 1)
  br label %173

173:                                              ; preds = %171, %49, %30
  ret void
}