; Function Attrs: nounwind uwtable
define internal fastcc void @php_session_rfc1867_update(ptr noundef %0, i32 noundef %1) unnamed_addr #0 {
  %3 = alloca i64, align 8
  %4 = alloca %struct.timeval, align 8
  %.not = icmp eq i32 %1, 0
  br i1 %.not, label %5, label %35

5:                                                ; preds = %2
  %6 = getelementptr inbounds i8, ptr %0, i64 112
  %7 = load ptr, ptr %6, align 8
  %8 = load i64, ptr %7, align 8
  %9 = getelementptr inbounds i8, ptr %0, i64 48
  %10 = load i64, ptr %9, align 8
  %11 = icmp slt i64 %8, %10
  br i1 %11, label %111, label %12

12:                                               ; preds = %5
  %13 = load double, ptr getelementptr inbounds (%struct._php_ps_globals, ptr @ps_globals, i64 0, i32 42), align 8
  %14 = fcmp ogt double %13, 0.000000e+00
  br i1 %14, label %15, label %30

15:                                               ; preds = %12
  call void @llvm.memset.p0.i64(ptr noundef nonnull align 8 dereferenceable(16) %4, i8 0, i64 16, i1 false)
  %16 = call i32 @gettimeofday(ptr noundef nonnull %4, ptr noundef null) #23
  %17 = load i64, ptr %4, align 8
  %18 = sitofp i64 %17 to double
  %19 = getelementptr inbounds i8, ptr %4, i64 8
  %20 = load i64, ptr %19, align 8
  %21 = sitofp i64 %20 to double
  %22 = fdiv double %21, 1.000000e+06
  %23 = fadd double %22, %18
  %24 = getelementptr inbounds i8, ptr %0, i64 56
  %25 = load double, ptr %24, align 8
  %26 = fcmp olt double %23, %25
  br i1 %26, label %111, label %27

27:                                               ; preds = %15
  %28 = load double, ptr getelementptr inbounds (%struct._php_ps_globals, ptr @ps_globals, i64 0, i32 42), align 8
  %29 = fadd double %23, %28
  store double %29, ptr %24, align 8
  %.pre = load ptr, ptr %6, align 8
  %.pre35 = load i64, ptr %.pre, align 8
  br label %30

30:                                               ; preds = %27, %12
  %31 = phi i64 [ %.pre35, %27 ], [ %8, %12 ]
  %32 = getelementptr inbounds i8, ptr %0, i64 40
  %33 = load i64, ptr %32, align 8
  %34 = add nsw i64 %33, %31
  store i64 %34, ptr %9, align 8
  br label %35

35:                                               ; preds = %30, %2
  %36 = tail call fastcc i32 @php_session_initialize(), !range !4
  store i32 2, ptr getelementptr inbounds (%struct._php_ps_globals, ptr @ps_globals, i64 0, i32 14), align 8
  %37 = load i8, ptr getelementptr inbounds (%struct._php_ps_globals, ptr @ps_globals, i64 0, i32 35, i32 1), align 16
  %38 = icmp eq i8 %37, 10
  br i1 %38, label %39, label %109

39:                                               ; preds = %35
  %40 = load ptr, ptr getelementptr inbounds (%struct._php_ps_globals, ptr @ps_globals, i64 0, i32 35), align 8
  %41 = getelementptr inbounds i8, ptr %40, i64 8
  %42 = getelementptr inbounds i8, ptr %40, i64 16
  %43 = load i8, ptr %42, align 8
  %44 = icmp eq i8 %43, 7
  br i1 %44, label %45, label %109

45:                                               ; preds = %39
  %46 = load ptr, ptr %41, align 8
  %47 = load i32, ptr %46, align 4
  %48 = icmp ugt i32 %47, 1
  br i1 %48, label %49, label %57

49:                                               ; preds = %45
  %50 = tail call ptr @zend_array_dup(ptr noundef nonnull %46) #23
  store ptr %50, ptr %41, align 8
  store i32 775, ptr %42, align 8
  %51 = getelementptr inbounds i8, ptr %46, i64 4
  %52 = load i32, ptr %51, align 4
  %53 = and i32 %52, 64
  %.not33 = icmp eq i32 %53, 0
  br i1 %.not33, label %54, label %57

54:                                               ; preds = %49
  %55 = load i32, ptr %46, align 4
  %56 = add i32 %55, -1
  store i32 %56, ptr %46, align 4
  br label %57

57:                                               ; preds = %45, %54, %49
  %58 = getelementptr i8, ptr %0, i64 24
  %.val = load ptr, ptr %58, align 8
  call void @llvm.lifetime.start.p0(i64 8, ptr nonnull %3)
  %59 = load ptr, ptr getelementptr inbounds (%struct._php_ps_globals, ptr @ps_globals, i64 0, i32 35), align 8
  %60 = getelementptr inbounds i8, ptr %59, i64 8
  %61 = load ptr, ptr %60, align 8
  %62 = getelementptr inbounds i8, ptr %.val, i64 24
  %63 = getelementptr inbounds i8, ptr %.val, i64 16
  %64 = load i64, ptr %63, align 8
  %65 = load i8, ptr %62, align 1
  %66 = icmp sgt i8 %65, 57
  br i1 %66, label %.critedge.i, label %67

67:                                               ; preds = %57
  %68 = icmp slt i8 %65, 48
  br i1 %68, label %69, label %74

69:                                               ; preds = %67
  %.not.i = icmp eq i8 %65, 45
  br i1 %.not.i, label %70, label %.critedge.i

70:                                               ; preds = %69
  %71 = getelementptr inbounds i8, ptr %.val, i64 25
  %72 = load i8, ptr %71, align 1
  %73 = add i8 %72, -58
  %or.cond.i = icmp ult i8 %73, -10
  br i1 %or.cond.i, label %.critedge.i, label %74

74:                                               ; preds = %70, %67
  %75 = call zeroext i1 @_zend_handle_numeric_str_ex(ptr noundef nonnull %62, i64 noundef %64, ptr noundef nonnull %3) #23
  br i1 %75, label %76, label %.critedge.i

76:                                               ; preds = %74
  %77 = load i64, ptr %3, align 8
  %78 = call ptr @zend_hash_index_find(ptr noundef %61, i64 noundef %77) #23
  br label %80

.critedge.i:                                      ; preds = %74, %70, %69, %57
  %79 = call ptr @zend_hash_find(ptr noundef %61, ptr noundef nonnull %.val) #23
  br label %80

80:                                               ; preds = %.critedge.i, %76
  %.023.i = phi ptr [ %78, %76 ], [ %79, %.critedge.i ]
  %81 = icmp eq ptr %.023.i, null
  br i1 %81, label %php_check_cancel_upload.exit, label %82

82:                                               ; preds = %80
  %83 = getelementptr inbounds i8, ptr %.023.i, i64 8
  %84 = load i8, ptr %83, align 8
  %.not28.i = icmp eq i8 %84, 7
  br i1 %.not28.i, label %85, label %php_check_cancel_upload.exit

85:                                               ; preds = %82
  %86 = load ptr, ptr %.023.i, align 8
  %87 = call ptr @zend_hash_str_find(ptr noundef %86, ptr noundef nonnull @.str.255, i64 noundef 13) #23
  %88 = icmp eq ptr %87, null
  br i1 %88, label %php_check_cancel_upload.exit, label %89

89:                                               ; preds = %85
  %90 = getelementptr inbounds i8, ptr %87, i64 8
  %91 = load i8, ptr %90, align 8
  %92 = icmp eq i8 %91, 3
  %93 = zext i1 %92 to i8
  br label %php_check_cancel_upload.exit

php_check_cancel_upload.exit:                     ; preds = %80, %82, %85, %89
  %.024.i = phi i8 [ %93, %89 ], [ 0, %80 ], [ 0, %82 ], [ 0, %85 ]
  call void @llvm.lifetime.end.p0(i64 8, ptr nonnull %3)
  %94 = getelementptr inbounds i8, ptr %0, i64 64
  %95 = load i8, ptr %94, align 8
  %96 = and i8 %95, 1
  %97 = or i8 %96, %.024.i
  store i8 %97, ptr %94, align 8
  %98 = getelementptr inbounds i8, ptr %0, i64 80
  %99 = getelementptr inbounds i8, ptr %0, i64 89
  %100 = load i8, ptr %99, align 1
  %.not34 = icmp eq i8 %100, 0
  br i1 %.not34, label %105, label %101

101:                                              ; preds = %php_check_cancel_upload.exit
  %102 = load ptr, ptr %98, align 8
  %103 = load i32, ptr %102, align 4
  %104 = add i32 %103, 1
  store i32 %104, ptr %102, align 4
  br label %105

105:                                              ; preds = %php_check_cancel_upload.exit, %101
  %106 = load ptr, ptr %41, align 8
  %107 = load ptr, ptr %58, align 8
  %108 = call ptr @zend_hash_update(ptr noundef %106, ptr noundef %107, ptr noundef nonnull %98) #23
  br label %109

109:                                              ; preds = %105, %39, %35
  %110 = call i32 @php_session_flush(i32 noundef 1), !range !4
  br label %111

111:                                              ; preds = %15, %5, %109
  ret void
}